ccopy_reg
_reconstructor
p1
(clostsky.core.persistentobjects
Options
p2
c__builtin__
object
p3
NtRp4
(dp5
S'show_enemy_moves'
p6
I01
sS'sfx_volume'
p7
I5
sS'music_volume'
p8
I5
sS'turn_end'
p9
I01
sS'grid'
p10
I00
sS'battle_anim'
p11
I01
sS'auto_save'
p12
I01
sb.